(lp1
(dp2
S'finalAcc'
p3
cnumpy.core.multiarray
scalar
p4
(cnumpy
dtype
p5
(S'f8'
I0
I1
tRp6
(I3
S'<'
NNNI-1
I-1
I0
tbS'\xda\x81\xb9v`\xae\xdd?'
tRp7
sS'bestValAcc'
p8
g4
(g6
S',\\\x8f\xc2\xf5(\xdc?'
tRp9
sS'minError'
p10
cnumpy.core.multiarray
_reconstruct
p11
(cnumpy
ndarray
p12
(I0
tS'b'
tRp13
(I1
(tg6
I00
S'\x13?\xa3\xc4\xcf(\xe1?'
tbsa(lp14
(dp15
S'acc'
p16
g4
(g6
S'\xfa<\xe2\xca,\x9c\xd0?'
tRp17
sS'x'
F0.0029239766081872176
sa(dp18
g16
g4
(g6
S'\xb0\xbb6\xda,!\xd2?'
tRp19
sS'x'
F0.14912280701754388
sa(dp20
g16
g4
(g6
S'&\xd1\xafXm\xaa\xd6?'
tRp21
sS'x'
F0.29532163742690054
sa(dp22
g16
g4
(g6
S'\xc4\x0e\xce\xb5L\x85\xda?'
tRp23
sS'x'
F0.44152046783625742
sa(dp24
g16
g4
(g6
S'2\xaa\x82\x9e3\xd6\xdd?'
tRp25
sS'x'
F0.58771929824561409
sa(dp26
g16
g4
(g6
S'\xe4\xda\xe3\xd1\xf5\xad\xdd?'
tRp27
sS'x'
F0.73391812865497075
sa(dp28
g16
g4
(g6
S"\xac-g'\xda\xa7\xdf?"
tRp29
sS'x'
F0.88011695906432763
sa(dp30
g16
g4
(g6
S'6\xa5c\x80\xe0\xb9\xe0?'
tRp31
sS'x'
F1
sa(dp32
g16
g4
(g6
S'\xf4\x11\xdcGp\x1f\xe1?'
tRp33
sS'x'
F1.0029239766081872
sa(dp34
g16
g4
(g6
S'\x92\xb6\r\xf9\xbb\xcf\xe1?'
tRp35
sS'x'
F1.1491228070175437
sa(dp36
g16
g4
(g6
S'\xc6\x95Y8\xe1\xf5\xe2?'
tRp37
sS'x'
F1.2953216374269005
sa(dp38
g16
g4
(g6
S'\xdc\x9d|%:w\xe3?'
tRp39
sS'x'
F1.4415204678362574
sa(dp40
g16
g4
(g6
S'\x08\x80\xc2pG\xcd\xe4?'
tRp41
sS'x'
F1.5877192982456139
sa(dp42
g16
g4
(g6
S'2d-\xce\xbf\x0f\xe3?'
tRp43
sS'x'
F1.7339181286549707
sa(dp44
g16
g4
(g6
S'j\x8bx\xd1R\x83\xe5?'
tRp45
sS'x'
F1.8801169590643276
sa(dp46
g16
g4
(g6
S'}\xef\x9b\xdc\xf4]\xe5?'
tRp47
sS'x'
F2
sa(dp48
g16
g4
(g6
S'Jy\r\xe55\x94\xe7?'
tRp49
sS'x'
F2.0029239766081872
sa(dp50
g16
g4
(g6
S'\xd4\\Fs\x19\xcd\xe5?'
tRp51
sS'x'
F2.1491228070175437
sa(dp52
g16
g4
(g6
S'\xf6Sb\x12\x7fr\xe8?'
tRp53
sS'x'
F2.2953216374269005
sa(dp54
g16
g4
(g6
S'\xe7\xecD\xfb\xf4g\xe8?'
tRp55
sS'x'
F2.4415204678362574
sa(dp56
g16
g4
(g6
S'\x86\x97j\xc4\x10x\xe9?'
tRp57
sS'x'
F2.5877192982456139
sa(dp58
g16
g4
(g6
S'\xe8w\x1a\xa2_\xb1\xea?'
tRp59
sS'x'
F2.7339181286549707
sa(dp60
g16
g4
(g6
S'P\x99\x002\xcf\x94\xe9?'
tRp61
sS'x'
F2.8801169590643276
sa(dp62
g16
g4
(g6
S'\x1a\xfbe\xc3;~\xec?'
tRp63
sS'x'
F3
sa(dp64
g16
g4
(g6
S'\x01\xf96\xee\xb2\\\xec?'
tRp65
sS'x'
F3.0029239766081872
sa(dp66
g16
g4
(g6
S'\x8cgE#\x01\xdf\xec?'
tRp67
sS'x'
F3.1491228070175437
sa(dp68
g16
g4
(g6
S'\x8a\x10d#\x0b\xa2\xea?'
tRp69
sS'x'
F3.295321637426901
sa(dp70
g16
g4
(g6
S'\xd3\x9b\xd21@\xf0\xec?'
tRp71
sS'x'
F3.4415204678362574
sa(dp72
g16
g4
(g6
S'\x88m9;\xd1>\xed?'
tRp73
sS'x'
F3.5877192982456139
sa(dp74
g16
g4
(g6
S'2\x7f|\x1bwY\xee?'
tRp75
sS'x'
F3.7339181286549703
sa(dp76
g16
g4
(g6
S'\xa6\x13h\xf2\x10\x07\xee?'
tRp77
sS'x'
F3.8801169590643276
sa(dp78
g16
g4
(g6
S'8 \x82\xf1E\xd0\xee?'
tRp79
sS'x'
F4
sa(dp80
g16
g4
(g6
S'\xf1\xc0\xee_JB\xef?'
tRp81
sS'x'
F4.0029239766081872
sa(dp82
g16
g4
(g6
S'\xdb\x90\xbf\xfb\x1ct\xef?'
tRp83
sS'x'
F4.1491228070175437
sa(dp84
g16
g4
(g6
S'Q\xf7\xaaC\x12u\xef?'
tRp85
sS'x'
F4.295321637426901
sa(dp86
g16
g4
(g6
S'\xdf_\xc5`\x90\x97\xef?'
tRp87
sS'x'
F4.4415204678362574
sa(dp88
g16
g4
(g6
S'j\xf9\xd9\x18\x9b\x96\xef?'
tRp89
sS'x'
F4.5877192982456139
sa(dp90
g16
g4
(g6
S'&\x94Ro\xcf\xa8\xef?'
tRp91
sS'x'
F4.7339181286549703
sa(dp92
g16
g4
(g6
S'\xfd-\x00\x8f\xa4\xac\xef?'
tRp93
sS'x'
F4.8801169590643276
sa(dp94
g16
g4
(g6
S'\x0c\x95\x1d\xa6.\xb7\xef?'
tRp95
sS'x'
F5
sa(dp96
g16
g4
(g6
S'\x86\xca\x0eS\x97\xdb\xef?'
tRp97
sS'x'
F5.0029239766081872
sa(dp98
g16
g4
(g6
S'Ce\x87\xa9\xcb\xed\xef?'
tRp99
sS'x'
F5.1491228070175437
sa(dp100
g16
g4
(g6
S'\xb9\xcbr\xf1\xc0\xee\xef?'
tRp101
sS'x'
F5.295321637426901
sa(dp102
g16
g4
(g6
S'{2\xf7\xa0\x80\xf4\xef?'
tRp103
sS'x'
F5.4415204678362574
sa(dp104
g16
g4
(g6
S'\xe21\xc5\xd1\xeb\xea\xef?'
tRp105
sS'x'
F5.5877192982456139
sa(dp106
g16
g4
(g6
S'\x1a\xff4\xc9\xa0\xf1\xef?'
tRp107
sS'x'
F5.7339181286549703
sa(dp108
g16
g4
(g6
S'X\x98\xb0\x19\xe1\xeb\xef?'
tRp109
sS'x'
F5.8801169590643276
sa(dp110
g16
g4
(g6
S'\xb3\xfff\x985\xfb\xef?'
tRp111
sS'x'
F6
sa(dp112
g16
g4
(g6
S'\xb3\xfff\x985\xfb\xef?'
tRp113
sS'x'
F6.0029239766081872
sa(dp114
g16
g4
(g6
S')fR\xe0*\xfc\xef?'
tRp115
sS'x'
F6.1491228070175437
sa(dp116
g16
g4
(g6
S')fR\xe0*\xfc\xef?'
tRp117
sS'x'
F6.295321637426901
sa(dp118
g16
g4
(g6
S'\x9f\xcc=( \xfd\xef?'
tRp119
sS'x'
F6.4415204678362574
sa(dp120
g16
g4
(g6
S'\xb3\xfff\x985\xfb\xef?'
tRp121
sS'x'
F6.5877192982456139
sa(dp122
g16
g4
(g6
S'\x9f\xcc=( \xfd\xef?'
tRp123
sS'x'
F6.7339181286549703
sa(dp124
g16
g4
(g6
S'\xb3\xfff\x985\xfb\xef?'
tRp125
sS'x'
F6.8801169590643276
sa(dp126
g16
g4
(g6
S'\x153)p\x15\xfe\xef?'
tRp127
sS'x'
F7
sa(dp128
g16
g4
(g6
S'\x153)p\x15\xfe\xef?'
tRp129
sS'x'
F7.0029239766081872
sa(dp130
g16
g4
(g6
S'\x153)p\x15\xfe\xef?'
tRp131
sS'x'
F7.1491228070175445
sa(dp132
g16
g4
(g6
S'\x153)p\x15\xfe\xef?'
tRp133
sS'x'
F7.2953216374269001
sa(dp134
g16
g4
(g6
S'\x8a\x99\x14\xb8\n\xff\xef?'
tRp135
sS'x'
F7.4415204678362574
sa(dp136
g16
g4
(g6
S'\x8a\x99\x14\xb8\n\xff\xef?'
tRp137
sS'x'
F7.5877192982456148
sa(dp138
g16
g4
(g6
S'\x8a\x99\x14\xb8\n\xff\xef?'
tRp139
sS'x'
F7.7339181286549703
sa(dp140
g16
g4
(g6
S'\x00\x00\x00\x00\x00\x00\xf0?'
tRp141
sS'x'
F7.8801169590643276
sa(dp142
g16
g4
(g6
S'\x8a\x99\x14\xb8\n\xff\xef?'
tRp143
sS'x'
F8
sa(dp144
g16
g4
(g6
S'\x8a\x99\x14\xb8\n\xff\xef?'
tRp145
sS'x'
F8.0029239766081872
sa(dp146
g16
g4
(g6
S'\x153)p\x15\xfe\xef?'
tRp147
sS'x'
F8.1491228070175445
sa(dp148
g16
g4
(g6
S'\x8a\x99\x14\xb8\n\xff\xef?'
tRp149
sS'x'
F8.2953216374269001
sa(dp150
g16
g4
(g6
S'\x8a\x99\x14\xb8\n\xff\xef?'
tRp151
sS'x'
F8.4415204678362574
sa(dp152
g16
g4
(g6
S'\x153)p\x15\xfe\xef?'
tRp153
sS'x'
F8.5877192982456148
sa(dp154
g16
g4
(g6
S'\x8a\x99\x14\xb8\n\xff\xef?'
tRp155
sS'x'
F8.7339181286549703
sa(dp156
g16
g4
(g6
S'\x153)p\x15\xfe\xef?'
tRp157
sS'x'
F8.8801169590643276
sa(dp158
g16
g4
(g6
S'\x153)p\x15\xfe\xef?'
tRp159
sS'x'
F9
sa(dp160
g16
g4
(g6
S'\x153)p\x15\xfe\xef?'
tRp161
sS'x'
F9.0029239766081872
sa(dp162
g16
g4
(g6
S'\x8a\x99\x14\xb8\n\xff\xef?'
tRp163
sS'x'
F9.1491228070175445
sa(dp164
g16
g4
(g6
S'\x00\x00\x00\x00\x00\x00\xf0?'
tRp165
sS'x'
F9.2953216374269001
sa(dp166
g16
g4
(g6
S'\x00\x00\x00\x00\x00\x00\xf0?'
tRp167
sS'x'
F9.4415204678362574
sa(dp168
g16
g4
(g6
S'\x00\x00\x00\x00\x00\x00\xf0?'
tRp169
sS'x'
F9.5877192982456148
sa(dp170
g16
g4
(g6
S'\x8a\x99\x14\xb8\n\xff\xef?'
tRp171
sS'x'
F9.7339181286549703
sa(dp172
g16
g4
(g6
S'\x153)p\x15\xfe\xef?'
tRp173
sS'x'
F9.8801169590643276
sa(dp174
g16
g4
(g6
S'\x8a\x99\x14\xb8\n\xff\xef?'
tRp175
sS'x'
F10
saa(lp176
(dp177
g16
g4
(g6
S'\xd4`\x08\r\x86\xd0\xd0?'
tRp178
sS'x'
F0.0029239766081872176
sa(dp179
g16
g4
(g6
S'\xb2\xc0+\x0b\xbc\xb2\xd0?'
tRp180
sS'x'
F0.14912280701754388
sa(dp181
g16
g4
(g6
S'\xfa5\xe2_#\xfe\xd5?'
tRp182
sS'x'
F0.29532163742690054
sa(dp183
g16
g4
(g6
S'\xe8\xd8m\x8e\xdd\xe6\xd8?'
tRp184
sS'x'
F0.44152046783625742
sa(dp185
g16
g4
(g6
S'\xb2\x8aI\xab\x98\xb4\xda?'
tRp186
sS'x'
F0.58771929824561409
sa(dp187
g16
g4
(g6
S'~\xa8\xe9\x87\x9a~\xd8?'
tRp188
sS'x'
F0.73391812865497075
sa(dp189
g16
g4
(g6
S'\x82\xebQ\xb8\x1e\x85\xdb?'
tRp190
sS'x'
F0.88011695906432763
sa(dp191
g16
g4
(g6
S'PZ\xc5\xa4UL\xda?'
tRp192
sS'x'
F1
sa(dp193
g16
g4
(g6
S'\xa8\xe9\x87\x9a~\xa8\xd9?'
tRp194
sS'x'
F1.0029239766081872
sa(dp195
g16
g4
(g6
S'\xf2y/\x9f\xf7\xf2\xd9?'
tRp196
sS'x'
F1.1491228070175437
sa(dp197
g16
g4
(g6
S'x\x9bc\xb79v\xdb?'
tRp198
sS'x'
F1.2953216374269005
sa(dp199
g16
g4
(g6
S'>\n\xd7\xa3p=\xda?'
tRp200
sS'x'
F1.4415204678362574
sa(dp201
g16
g4
(g6
S'x\xf9\xbc\x97\xcf{\xd9?'
tRp202
sS'x'
F1.5877192982456139
sa(dp203
g16
g4
(g6
S'\x90;@\xb9\x03\x94\xdb?'
tRp204
sS'x'
F1.7339181286549707
sa(dp205
g16
g4
(g6
S'.\x0b\xbc\xb2\xc0+\xdb?'
tRp206
sS'x'
F1.8801169590643276
sa(dp207
g16
g4
(g6
S'\xb2\x8aI\xab\x98\xb4\xda?'
tRp208
sS'x'
F2
sa(dp209
g16
g4
(g6
S'\x1c\xbb\xcd\xb1\xdb\x1c\xdb?'
tRp210
sS'x'
F2.0029239766081872
sa(dp211
g16
g4
(g6
S'\x96\x99\x99\x99\x99\x99\xd9?'
tRp212
sS'x'
F2.1491228070175437
sa(dp213
g16
g4
(g6
S'r\x9bc\xb79v\xdb?'
tRp214
sS'x'
F2.2953216374269005
sa(dp215
g16
g4
(g6
S'\xdez\x14\xaeG\xe1\xda?'
tRp216
sS'x'
F2.4415204678362574
sa(dp217
g16
g4
(g6
S'\xb89v\x9bc\xb7\xd9?'
tRp218
sS'x'
F2.5877192982456139
sa(dp219
g16
g4
(g6
S'\\\xaa\xb3\xa5:[\xda?'
tRp220
sS'x'
F2.7339181286549707
sa(dp221
g16
g4
(g6
S'zJ\x90\xa7\x04y\xda?'
tRp222
sS'x'
F2.8801169590643276
sa(dp223
g16
g4
(g6
S'@\n\xd7\xa3p=\xda?'
tRp224
sS'x'
F3
sa(dp225
g16
g4
(g6
S'\xd6\xd9R\x9d-\xd5\xd9?'
tRp226
sS'x'
F3.0029239766081872
sa(dp227
g16
g4
(g6
S'\xe4\xd8m\x8e\xdd\xe6\xd8?'
tRp228
sS'x'
F3.1491228070175437
sa(dp229
g16
g4
(g6
S'fKu\xb6Tg\xdb?'
tRp230
sS'x'
F3.295321637426901
sa(dp231
g16
g4
(g6
S'\x92;@\xb9\x03\x94\xdb?'
tRp232
sS'x'
F3.4415204678362574
sa(dp233
g16
g4
(g6
S'\xf2\xca\x02\xaf,\xf0\xda?'
tRp234
sS'x'
F3.5877192982456139
sa(dp235
g16
g4
(g6
S'hKu\xb6Tg\xdb?'
tRp236
sS'x'
F3.7339181286549703
sa(dp237
g16
g4
(g6
S'\x02\xca\x1d\xa0\xdc\x01\xda?'
tRp238
sS'x'
F3.8801169590643276
sa(dp239
g16
g4
(g6
S'\xd2\xd9R\x9d-\xd5\xd9?'
tRp240
sS'x'
F4
sa(dp241
g16
g4
(g6
S'.\xba\xe8\xa2\x8b.\xda?'
tRp242
sS'x'
F4.0029239766081872
sa(dp243
g16
g4
(g6
S'\x94\xeal\xa9\xce\x96\xda?'
tRp244
sS'x'
F4.1491228070175437
sa(dp245
g16
g4
(g6
S'.\xba\xe8\xa2\x8b.\xda?'
tRp246
sS'x'
F4.295321637426901
sa(dp247
g16
g4
(g6
S'\x96\xeal\xa9\xce\x96\xda?'
tRp248
sS'x'
F4.4415204678362574
sa(dp249
g16
g4
(g6
S'\x1ej\xfa\xa1\xa6\x1f\xda?'
tRp250
sS'x'
F4.5877192982456139
sa(dp251
g16
g4
(g6
S'j\xfa\xa1\xa6\x1fj\xda?'
tRp252
sS'x'
F4.7339181286549703
sa(dp253
g16
g4
(g6
S'*\x0b\xbc\xb2\xc0+\xdb?'
tRp254
sS'x'
F4.8801169590643276
sa(dp255
g16
g4
(g6
S'XY\xe0\x95\x05^\xd9?'
tRp256
sS'x'
F5
sa(dp257
g16
g9
sS'x'
F5.0029239766081872
sa(dp258
g16
g4
(g6
S'\xc2+\x0b\xbc\xb2\xc0\xdb?'
tRp259
sS'x'
F5.1491228070175437
sa(dp260
g16
g4
(g6
S'j\xfa\xa1\xa6\x1fj\xda?'
tRp261
sS'x'
F5.295321637426901
sa(dp262
g16
g4
(g6
S'\xe2z\x14\xaeG\xe1\xda?'
tRp263
sS'x'
F5.4415204678362574
sa(dp264
g16
g4
(g6
S'LZ\xc5\xa4UL\xda?'
tRp265
sS'x'
F5.5877192982456139
sa(dp266
g16
g4
(g6
S'\xb6\x8aI\xab\x98\xb4\xda?'
tRp267
sS'x'
F5.7339181286549703
sa(dp268
g16
g4
(g6
S'\x92;@\xb9\x03\x94\xdb?'
tRp269
sS'x'
F5.8801169590643276
sa(dp270
g16
g4
(g6
S'\x88\x9a~\xa8\xe9\x87\xda?'
tRp271
sS'x'
F6
sa(dp272
g16
g4
(g6
S'J\xab\x98\xb4\x8aI\xdb?'
tRp273
sS'x'
F6.0029239766081872
sa(dp274
g16
g4
(g6
S'\x1ej\xfa\xa1\xa6\x1f\xda?'
tRp275
sS'x'
F6.1491228070175437
sa(dp276
g16
g4
(g6
S'\xd4*&\xadb\xd2\xda?'
tRp277
sS'x'
F6.295321637426901
sa(dp278
g16
g4
(g6
S'\xfc\x1a\xf1\xaf\x11\xff\xda?'
tRp279
sS'x'
F6.4415204678362574
sa(dp280
g16
g4
(g6
S'\x10k\xdf\xb0\xf6\r\xdb?'
tRp281
sS'x'
F6.5877192982456139
sa(dp282
g16
g4
(g6
S't\x9bc\xb79v\xdb?'
tRp283
sS'x'
F6.7339181286549703
sa(dp284
g16
g4
(g6
S'>[\xaa\xb3\xa5:\xdb?'
tRp285
sS'x'
F6.8801169590643276
sa(dp286
g16
g4
(g6
S'\xf2\xca\x02\xaf,\xf0\xda?'
tRp287
sS'x'
F7
sa(dp288
g16
g4
(g6
S'\x00\x1b\xf1\xaf\x11\xff\xda?'
tRp289
sS'x'
F7.0029239766081872
sa(dp290
g16
g4
(g6
S'\x02\x1b\xf1\xaf\x11\xff\xda?'
tRp291
sS'x'
F7.1491228070175445
sa(dp292
g16
g4
(g6
S' \xbb\xcd\xb1\xdb\x1c\xdb?'
tRp293
sS'x'
F7.2953216374269001
sa(dp294
g16
g4
(g6
S'\xe0z\x14\xaeG\xe1\xda?'
tRp295
sS'x'
F7.4415204678362574
sa(dp296
g16
g4
(g6
S'.\x0b\xbc\xb2\xc0+\xdb?'
tRp297
sS'x'
F7.5877192982456148
sa(dp298
g16
g4
(g6
S'\x12k\xdf\xb0\xf6\r\xdb?'
tRp299
sS'x'
F7.7339181286549703
sa(dp300
g16
g4
(g6
S'\xe0z\x14\xaeG\xe1\xda?'
tRp301
sS'x'
F7.8801169590643276
sa(dp302
g16
g4
(g6
S'\x0ck\xdf\xb0\xf6\r\xdb?'
tRp303
sS'x'
F8
sa(dp304
g16
g4
(g6
S'\x92\xeal\xa9\xce\x96\xda?'
tRp305
sS'x'
F8.0029239766081872
sa(dp306
g16
g4
(g6
S'\xc2+\x0b\xbc\xb2\xc0\xdb?'
tRp307
sS'x'
F8.1491228070175445
sa(dp308
g16
g4
(g6
S'Z\xfb\x86\xb5oX\xdb?'
tRp309
sS'x'
F8.2953216374269001
sa(dp310
g16
g4
(g6
S'<[\xaa\xb3\xa5:\xdb?'
tRp311
sS'x'
F8.4415204678362574
sa(dp312
g16
g4
(g6
S'\x18\xbb\xcd\xb1\xdb\x1c\xdb?'
tRp313
sS'x'
F8.5877192982456148
sa(dp314
g16
g4
(g6
S'\xb2\x8aI\xab\x98\xb4\xda?'
tRp315
sS'x'
F8.7339181286549703
sa(dp316
g16
g4
(g6
S'\xb6\x8aI\xab\x98\xb4\xda?'
tRp317
sS'x'
F8.8801169590643276
sa(dp318
g16
g4
(g6
S'JZ\xc5\xa4UL\xda?'
tRp319
sS'x'
F9
sa(dp320
g16
g4
(g6
S'\x94\xeal\xa9\xce\x96\xda?'
tRp321
sS'x'
F9.0029239766081872
sa(dp322
g16
g4
(g6
S'\x94\xeal\xa9\xce\x96\xda?'
tRp323
sS'x'
F9.1491228070175445
sa(dp324
g16
g4
(g6
S'\xfc\x1a\xf1\xaf\x11\xff\xda?'
tRp325
sS'x'
F9.2953216374269001
sa(dp326
g16
g4
(g6
S'H\xab\x98\xb4\x8aI\xdb?'
tRp327
sS'x'
F9.4415204678362574
sa(dp328
g16
g4
(g6
S'.\x0b\xbc\xb2\xc0+\xdb?'
tRp329
sS'x'
F9.5877192982456148
sa(dp330
g16
g4
(g6
S'\x0ek\xdf\xb0\xf6\r\xdb?'
tRp331
sS'x'
F9.7339181286549703
sa(dp332
g16
g4
(g6
S'\xd4*&\xadb\xd2\xda?'
tRp333
sS'x'
F9.8801169590643276
sa(dp334
g16
g4
(g6
S'\x84\x9a~\xa8\xe9\x87\xda?'
tRp335
sS'x'
F10
saa(lp336
(dp337
g16
g4
(g6
S'$~F\x89\x9fQ\xd2?'
tRp338
sS'x'
F0.0029239766081872176
sa(dp339
g16
g4
(g6
S'X\xc8B\x16\xb2\x90\xd5?'
tRp340
sS'x'
F0.29532163742690054
sa(dp341
g16
g4
(g6
S'\xbe\xe9Moz\xd3\xd9?'
tRp342
sS'x'
F0.44152046783625742
sa(dp343
g16
g4
(g6
S'\xee\xc0\\;0\xd7\xda?'
tRp344
sS'x'
F0.58771929824561409
sa(dp345
g16
g4
(g6
S'z\xd3\x9b\xde\xf4\xa6\xdb?'
tRp346
sS'x'
F0.88011695906432763
sa(dp347
g16
g4
(g6
S'v`\xae\x1d\x98k\xdd?'
tRp348
sS'x'
F1.7339181286549707
sa(dp349
g16
g4
(g6
S'\x98k\x07\xe6\xda\x81\xdd?'
tRp350
sS'x'
F3.4415204678362574
sa(dp351
g16
g7
sS'x'
F5.0029239766081872
saa(lp352
(dp353
S'x'
F0.0029239766081872176
sS'value'
p354
g4
(g6
S'$\xb8\x8f =C\xf9?'
tRp355
sa(dp356
S'x'
F0.14912280701754388
sg354
g4
(g6
S'\x00\x00\x00\xa0\x1f\xf4\xf8?'
tRp357
sa(dp358
S'x'
F0.29532163742690054
sg354
g4
(g6
S'\x19\xcde\xe4\xd2t\xf7?'
tRp359
sa(dp360
S'x'
F0.44152046783625742
sg354
g4
(g6
S'\xf7\x11\xdc\xe7\x16T\xf5?'
tRp361
sa(dp362
S'x'
F0.58771929824561409
sg354
g4
(g6
S'\xac\xa7\xb0V#\x02\xf4?'
tRp363
sa(dp364
S'x'
F0.73391812865497075
sg354
g4
(g6
S'\x82\xfb\x08~\xfa\xa5\xf3?'
tRp365
sa(dp366
S'x'
F0.88011695906432763
sg354
g4
(g6
S'Nd7!\xfc\x9b\xf2?'
tRp367
sa(dp368
S'x'
F1
sg354
g4
(g6
S'\xa9\xad\xa4\x8ey0\xf2?'
tRp369
sa(dp370
S'x'
F1.0029239766081872
sg354
g4
(g6
S'\x10\xdfA\xe4\xcd\x03\xf2?'
tRp371
sa(dp372
S'x'
F1.1491228070175437
sg354
g4
(g6
S'9\x8e\xe3@\xc6\\\xf1?'
tRp373
sa(dp374
S'x'
F1.2953216374269005
sg354
g4
(g6
S'\x8e\xe38\xf6)Q\xf0?'
tRp375
sa(dp376
S'x'
F1.4415204678362574
sg354
g4
(g6
S'l(\xaf\xd1c_\xef?'
tRp377
sa(dp378
S'x'
F1.5877192982456139
sg354
g4
(g6
S'\x81\xfe\x02"\xee\xca\xed?'
tRp379
sa(dp380
S'x'
F1.7339181286549707
sg354
g4
(g6
S'\xea,\xa6\xe3\x9cx\xed?'
tRp381
sa(dp382
S'x'
F1.8801169590643276
sg354
g4
(g6
S'\xa0\xbf\x80>"\xf0\xeb?'
tRp383
sa(dp384
S'x'
F2
sg354
g4
(g6
S'TXO\xc1H\xc7\xeb?'
tRp385
sa(dp386
S'x'
F2.0029239766081872
sg354
g4
(g6
S'g1\x9d}b_\xea?'
tRp387
sa(dp388
S'x'
F2.1491228070175437
sg354
g4
(g6
S'\x99\xcebr\xfe$\xea?'
tRp389
sa(dp390
S'x'
F2.2953216374269005
sg354
g4
(g6
S'WR[)&\x05\xe6?'
tRp391
sa(dp392
S'x'
F2.4415204678362574
sg354
g4
(g6
S'\xc3z\n\x8f\x8e\xf8\xe4?'
tRp393
sa(dp394
S'x'
F2.5877192982456139
sg354
g4
(g6
S'i.\xa3\x05\x18h\xe3?'
tRp395
sa(dp396
S'x'
F2.7339181286549707
sg354
g4
(g6
S'\x8b\xe9,"\xbfF\xe1?'
tRp397
sa(dp398
S'x'
F2.8801169590643276
sg354
g4
(g6
S'\xe2;\x88\xff\x9b\xe3\xe0?'
tRp399
sa(dp400
S'x'
F3
sg354
g4
(g6
S'^Cy\xa1Y\x88\xdb?'
tRp401
sa(dp402
S'x'
F3.0029239766081872
sg354
g4
(g6
S'\t\xee#\xe4\xda\x98\xdb?'
tRp403
sa(dp404
S'x'
F3.1491228070175437
sg354
g4
(g6
S'\xed&\xb2\xeb\x99\x89\xd8?'
tRp405
sa(dp406
S'x'
F3.295321637426901
sg354
g4
(g6
S'\x06\xf4\x17\x8a\ti\xda?'
tRp407
sa(dp408
S'x'
F3.4415204678362574
sg354
g4
(g6
S'9\x8e\xe3l\x89U\xd3?'
tRp409
sa(dp410
S'x'
F3.5877192982456139
sg354
g4
(g6
S'\x87\xf2\x1a\x0e\xe3\xb8\xd1?'
tRp411
sa(dp412
S'x'
F3.7339181286549703
sg354
g4
(g6
S'\xdcGp\xbb\x93\xcd\xcc?'
tRp413
sa(dp414
S'x'
F3.8801169590643276
sg354
g4
(g6
S'\xc9n"wIh\xce?'
tRp415
sa(dp416
S'x'
F4
sg354
g4
(g6
S'\xc6t\x16c\x82z\xc7?'
tRp417
sa(dp418
S'x'
F4.0029239766081872
sg354
g4
(g6
S'\x1b\xcakV\x01v\xc3?'
tRp419
sa(dp420
S'x'
F4.1491228070175437
sg354
g4
(g6
S'6\x94\xd7\x88\xfc\x0c\xc0?'
tRp421
sa(dp422
S'x'
F4.295321637426901
sg354
g4
(g6
S'\x15\xd6S\x0c\xc3/\xbd?'
tRp423
sa(dp424
S'x'
F4.4415204678362574
sg354
g4
(g6
S'r\x1c\xc7A\x06\xb2\xb8?'
tRp425
sa(dp426
S'x'
F4.5877192982456139
sg354
g4
(g6
S'.\xa3\xb9\x086\x89\xb7?'
tRp427
sa(dp428
S'x'
F4.7339181286549703
sg354
g4
(g6
S'{\n\xebm\xce\xbb\xb7?'
tRp429
sa(dp430
S'x'
F4.8801169590643276
sg354
g4
(g6
S'\x90\xe0>\xa2\x90\xdc\xb4?'
tRp431
sa(dp432
S'x'
F5
sg354
g4
(g6
S'Lg1i\x19\xcf\xb6?'
tRp433
sa(dp434
S'x'
F5.0029239766081872
sg354
g4
(g6
S'Fs\x19\xdd\xc5\xef\xb0?'
tRp435
sa(dp436
S'x'
F5.1491228070175437
sg354
g4
(g6
S'\x9f\xc2z\x8e*!\xa9?'
tRp437
sa(dp438
S'x'
F5.295321637426901
sg354
g4
(g6
S'c:\x8b\xb9\x9bD\xa6?'
tRp439
sa(dp440
S'x'
F5.4415204678362574
sg354
g4
(g6
S'\xe2;\x88\x8ft,\xa3?'
tRp441
sa(dp442
S'x'
F5.5877192982456139
sg354
g4
(g6
S'\xfd\x05\xf4\x0f\x12d\xa6?'
tRp443
sa(dp444
S'x'
F5.7339181286549703
sg354
g4
(g6
S'$\xb8\x8fp)\xd1\xa3?'
tRp445
sa(dp446
S'x'
F5.8801169590643276
sg354
g4
(g6
S'r\x1c\xc7\x11\xf8\xb0\xa2?'
tRp447
sa(dp448
S'x'
F6
sg354
g4
(g6
S's\x19\xcdm$\x95\x9a?'
tRp449
sa(dp450
S'x'
F6.0029239766081872
sg354
g4
(g6
S'Oa=\xe5&\xc8\x99?'
tRp451
sa(dp452
S'x'
F6.1491228070175437
sg354
g4
(g6
S'\xcak(\x8f\xa3\xf0\x98?'
tRp453
sa(dp454
S'x'
F6.295321637426901
sg354
g4
(g6
S'UUU\x15w\xd2\x96?'
tRp455
sa(dp456
S'x'
F6.4415204678362574
sg354
g4
(g6
S'f4\x97\x81+\x9a\x94?'
tRp457
sa(dp458
S'x'
F6.5877192982456139
sg354
g4
(g6
S'9\x8e\xe3\xd0\xfd\x0c\x95?'
tRp459
sa(dp460
S'x'
F6.7339181286549703
sg354
g4
(g6
S'v\x13\xd9\x15p\xd1\x92?'
tRp461
sa(dp462
S'x'
F6.8801169590643276
sg354
g4
(g6
S'\n\xeb)T\x83\xbe\x91?'
tRp463
sa(dp464
S'x'
F7
sg354
g4
(g6
S'\x8a\xec&\x12\x85v\x90?'
tRp465
sa(dp466
S'x'
F7.0029239766081872
sg354
g4
(g6
S'\x8d\xe62\x8a\xa0t\x90?'
tRp467
sa(dp468
S'x'
F7.1491228070175445
sg354
g4
(g6
S'6\x94\xd7\x10\xb3\xb1\x8f?'
tRp469
sa(dp470
S'x'
F7.2953216374269001
sg354
g4
(g6
S'\n\xeb)t\xf5\xae\x8d?'
tRp471
sa(dp472
S'x'
F7.4415204678362574
sg354
g4
(g6
S'\xf4\x17\xd0\x07\xd2\x86\x8d?'
tRp473
sa(dp474
S'x'
F7.5877192982456148
sg354
g4
(g6
S'm%\xb5\x85H\xf2\x8b?'
tRp475
sa(dp476
S'x'
F7.7339181286549703
sg354
g4
(g6
S'\x8d\xe62\xca\x8f\x82\x8b?'
tRp477
sa(dp478
S'x'
F7.8801169590643276
sg354
g4
(g6
S']Fs\xb1P\xc5\x8a?'
tRp479
sa(dp480
S'x'
F8
sg354
g4
(g6
S'\x7f\x01\xfd\rM\xac\x8a?'
tRp481
sa(dp482
S'x'
F8.0029239766081872
sg354
g4
(g6
S'\x94\xd7P\x061W\x8a?'
tRp483
sa(dp484
S'x'
F8.1491228070175445
sg354
g4
(g6
S'\xeb)\xac\x875u\x8c?'
tRp485
sa(dp486
S'x'
F8.2953216374269001
sg354
g4
(g6
S'j+\xa9\xbd\xda~\x88?'
tRp487
sa(dp488
S'x'
F8.4415204678362574
sg354
g4
(g6
S'\xf9\x0e\xe2\xbb<\x13\x88?'
tRp489
sa(dp490
S'x'
F8.5877192982456148
sg354
g4
(g6
S'\xe8/\xa0\x0f\x0c\xb0\x86?'
tRp491
sa(dp492
S'x'
F8.7339181286549703
sg354
g4
(g6
S'\xe2;\x88\x97\xb9\x9d\x87?'
tRp493
sa(dp494
S'x'
F8.8801169590643276
sg354
g4
(g6
S'|\x07\xf1\x9d\xf3j\x86?'
tRp495
sa(dp496
S'x'
F9
sg354
g4
(g6
S'\x16\xd3Y$\x9c\xb9\x85?'
tRp497
sa(dp498
S'x'
F9.0029239766081872
sg354
g4
(g6
S"'\xb2\x9b\xd8ue\x85?"
tRp499
sa(dp500
S'x'
F9.1491228070175445
sg354
g4
(g6
S'l(\xaf\x89\x03\xbc\x84?'
tRp501
sa(dp502
S'x'
F9.2953216374269001
sg354
g4
(g6
S'\x16\xd3Y\\\xad\r\x84?'
tRp503
sa(dp504
S'x'
F9.4415204678362574
sg354
g4
(g6
S'\xdeDvCS\xaf\x83?'
tRp505
sa(dp506
S'x'
F9.5877192982456148
sg354
g4
(g6
S'o"\xbb\xf9\x00c\x83?'
tRp507
sa(dp508
S'x'
F9.7339181286549703
sg354
g4
(g6
S'\x8d\xe62\xba\x8fY\x83?'
tRp509
sa(dp510
S'x'
F9.8801169590643276
sg354
g4
(g6
S'\xf0 \xbe\xa3\x15\xb3\x82?'
tRp511
sa(dp512
S'x'
F10
sg354
g4
(g6
S'\x1f\xc1}$~\x05\x83?'
tRp513
saa.